target datalayout = "e-m:e-p270:32:32-p271:32:32-p272:64:64-i64:64-i128:128-f80:128-n8:16:32:64-S128"
target triple = "x86_64-pc-linux-gnu"

%"class.std::__cxx11::basic_string" = type { %"struct.std::__cxx11::basic_string<char>::_Alloc_hider", i64, %union.anon }
%"struct.std::__cxx11::basic_string<char>::_Alloc_hider" = type { ptr }
%union.anon = type { i64, [8 x i8] }

@.str.14 = private unnamed_addr constant [7 x i8] c"  %s,\0A\00", align 1
@.str.15 = private unnamed_addr constant [27 x i8] c"  sizeof(%s)/sizeof(*%s),\0A\00", align 1
@.str.16 = private unnamed_addr constant [33 x i8] c"const PrefixDescriptions %s = {\0A\00", align 1
@.str.17 = private unnamed_addr constant [4 x i8] c"};\0A\00", align 1

; Function Attrs: noinline noreturn nounwind uwtable
define linkonce_odr hidden void @__clang_call_terminate(ptr noundef %0) #10 comdat {
  %2 = call ptr @__cxa_begin_catch(ptr %0) #18
  call void @_ZSt9terminatev() #21
  unreachable
}

; Function Attrs: mustprogress nounwind uwtable
define available_externally noundef ptr @_ZNKSt7__cxx1112basic_stringIcSt11char_traitsIcESaIcEE7_M_dataEv(ptr noundef nonnull align 8 dereferenceable(32) %0) #1 align 2 {
  %2 = alloca ptr, align 8
  store ptr %0, ptr %2, align 8, !tbaa !4
  %3 = load ptr, ptr %2, align 8
  %4 = getelementptr inbounds nuw %"class.std::__cxx11::basic_string", ptr %3, i32 0, i32 0
  %5 = getelementptr inbounds nuw %"struct.std::__cxx11::basic_string<char>::_Alloc_hider", ptr %4, i32 0, i32 0
  %6 = load ptr, ptr %5, align 8, !tbaa !365
  ret ptr %6
}

; Function Attrs: mustprogress nounwind uwtable
define dso_local void @_ZN4i18n12phonenumbers17WriteArrayAndSizeERKNSt7__cxx1112basic_stringIcSt11char_traitsIcESaIcEEEP8_IO_FILE(ptr noundef nonnull align 8 dereferenceable(32) %0, ptr noundef %1) #1 {
  %3 = alloca ptr, align 8
  %4 = alloca ptr, align 8
  store ptr %0, ptr %3, align 8, !tbaa !4
  store ptr %1, ptr %4, align 8, !tbaa !59
  %5 = load ptr, ptr %4, align 8, !tbaa !59
  %6 = load ptr, ptr %3, align 8, !tbaa !4
  %7 = call noundef ptr @_ZNKSt7__cxx1112basic_stringIcSt11char_traitsIcESaIcEE5c_strEv(ptr noundef nonnull align 8 dereferenceable(32) %6) #18
  %8 = call i32 (ptr, ptr, ...) @fprintf(ptr noundef %5, ptr noundef @.str.14, ptr noundef %7) #18
  %9 = load ptr, ptr %4, align 8, !tbaa !59
  %10 = load ptr, ptr %3, align 8, !tbaa !4
  %11 = call noundef ptr @_ZNKSt7__cxx1112basic_stringIcSt11char_traitsIcESaIcEE5c_strEv(ptr noundef nonnull align 8 dereferenceable(32) %10) #18
  %12 = load ptr, ptr %3, align 8, !tbaa !4
  %13 = call noundef ptr @_ZNKSt7__cxx1112basic_stringIcSt11char_traitsIcESaIcEE5c_strEv(ptr noundef nonnull align 8 dereferenceable(32) %12) #18
  %14 = call i32 (ptr, ptr, ...) @fprintf(ptr noundef %9, ptr noundef @.str.15, ptr noundef %11, ptr noundef %13) #18
  ret void
}

; Function Attrs: mustprogress nounwind uwtable
define available_externally noundef ptr @_ZNKSt7__cxx1112basic_stringIcSt11char_traitsIcESaIcEE5c_strEv(ptr noundef nonnull align 8 dereferenceable(32) %0) #1 align 2 personality ptr @__gxx_personality_v0 {
  %2 = alloca ptr, align 8
  store ptr %0, ptr %2, align 8, !tbaa !4
  %3 = load ptr, ptr %2, align 8
  %4 = invoke noundef ptr @_ZNKSt7__cxx1112basic_stringIcSt11char_traitsIcESaIcEE7_M_dataEv(ptr noundef nonnull align 8 dereferenceable(32) %3)
          to label %5 unwind label %6

5:                                                ; preds = %1
  ret ptr %4

6:                                                ; preds = %1
  %7 = landingpad { ptr, i32 }
          catch ptr null
  %8 = extractvalue { ptr, i32 } %7, 0
  call void @__clang_call_terminate(ptr %8) #21
  unreachable
}

; Function Attrs: mustprogress nounwind uwtable
define dso_local void @_ZN4i18n12phonenumbers33WritePrefixDescriptionsDefinitionERKNSt7__cxx1112basic_stringIcSt11char_traitsIcESaIcEEES8_S8_S8_P8_IO_FILE(ptr noundef nonnull align 8 dereferenceable(32) %0, ptr noundef nonnull align 8 dereferenceable(32) %1, ptr noundef nonnull align 8 dereferenceable(32) %2, ptr noundef nonnull align 8 dereferenceable(32) %3, ptr noundef %4) #1 {
  %6 = alloca ptr, align 8
  %7 = alloca ptr, align 8
  %8 = alloca ptr, align 8
  %9 = alloca ptr, align 8
  %10 = alloca ptr, align 8
  store ptr %0, ptr %6, align 8, !tbaa !4
  store ptr %1, ptr %7, align 8, !tbaa !4
  store ptr %2, ptr %8, align 8, !tbaa !4
  store ptr %3, ptr %9, align 8, !tbaa !4
  store ptr %4, ptr %10, align 8, !tbaa !59
  %11 = load ptr, ptr %10, align 8, !tbaa !59
  %12 = load ptr, ptr %6, align 8, !tbaa !4
  %13 = call noundef ptr @_ZNKSt7__cxx1112basic_stringIcSt11char_traitsIcESaIcEE5c_strEv(ptr noundef nonnull align 8 dereferenceable(32) %12) #18
  %14 = call i32 (ptr, ptr, ...) @fprintf(ptr noundef %11, ptr noundef @.str.16, ptr noundef %13) #18
  %15 = load ptr, ptr %7, align 8, !tbaa !4
  %16 = load ptr, ptr %10, align 8, !tbaa !59
  call void @_ZN4i18n12phonenumbers17WriteArrayAndSizeERKNSt7__cxx1112basic_stringIcSt11char_traitsIcESaIcEEEP8_IO_FILE(ptr noundef nonnull align 8 dereferenceable(32) %15, ptr noundef %16)
  %17 = load ptr, ptr %10, align 8, !tbaa !59
  %18 = load ptr, ptr %8, align 8, !tbaa !4
  %19 = call noundef ptr @_ZNKSt7__cxx1112basic_stringIcSt11char_traitsIcESaIcEE5c_strEv(ptr noundef nonnull align 8 dereferenceable(32) %18) #18
  %20 = call i32 (ptr, ptr, ...) @fprintf(ptr noundef %17, ptr noundef @.str.14, ptr noundef %19) #18
  %21 = load ptr, ptr %9, align 8, !tbaa !4
  %22 = load ptr, ptr %10, align 8, !tbaa !59
  call void @_ZN4i18n12phonenumbers17WriteArrayAndSizeERKNSt7__cxx1112basic_stringIcSt11char_traitsIcESaIcEEEP8_IO_FILE(ptr noundef nonnull align 8 dereferenceable(32) %21, ptr noundef %22)
  %23 = load ptr, ptr %10, align 8, !tbaa !59
  %24 = call i32 (ptr, ptr, ...) @fprintf(ptr noundef %23, ptr noundef @.str.17) #18
  ret void
}