; Function Attrs: mustprogress nofree nounwind uwtable
define dso_local void @_ZN4i18n12phonenumbers33WritePrefixDescriptionsDefinitionERKNSt7__cxx1112basic_stringIcSt11char_traitsIcESaIcEEES8_S8_S8_P8_IO_FILE(ptr noundef nonnull readonly align 8 captures(none) dereferenceable(32) %0, ptr noundef nonnull readonly align 8 captures(none) dereferenceable(32) %1, ptr noundef nonnull readonly align 8 captures(none) dereferenceable(32) %2, ptr noundef nonnull readonly align 8 captures(none) dereferenceable(32) %3, ptr noundef captures(none) %4) local_unnamed_addr #10 personality ptr @__gxx_personality_v0 {
  %6 = load ptr, ptr %0, align 8, !tbaa !11
  %7 = tail call i32 (ptr, ptr, ...) @fprintf(ptr noundef %4, ptr noundef nonnull @.str.16, ptr noundef %6) #29
  %8 = load ptr, ptr %1, align 8, !tbaa !11
  %9 = tail call i32 (ptr, ptr, ...) @fprintf(ptr noundef %4, ptr noundef nonnull @.str.14, ptr noundef %8) #29
  %10 = load ptr, ptr %1, align 8, !tbaa !11
  %11 = tail call i32 (ptr, ptr, ...) @fprintf(ptr noundef %4, ptr noundef nonnull @.str.15, ptr noundef %10, ptr noundef %10) #29
  %12 = load ptr, ptr %2, align 8, !tbaa !11
  %13 = tail call i32 (ptr, ptr, ...) @fprintf(ptr noundef %4, ptr noundef nonnull @.str.14, ptr noundef %12) #29
  %14 = load ptr, ptr %3, align 8, !tbaa !11
  %15 = tail call i32 (ptr, ptr, ...) @fprintf(ptr noundef %4, ptr noundef nonnull @.str.14, ptr noundef %14) #29
  %16 = load ptr, ptr %3, align 8, !tbaa !11
  %17 = tail call i32 (ptr, ptr, ...) @fprintf(ptr noundef %4, ptr noundef nonnull @.str.15, ptr noundef %16, ptr noundef %16) #29
  %18 = tail call i64 @fwrite(ptr nonnull @.str.17, i64 3, i64 1, ptr %4)
  ret void
}